target datalayout = "e-m:e-p270:32:32-p271:32:32-p272:64:64-i64:64-i128:128-f80:128-n8:16:32:64-S128"
target triple = "x86_64-pc-linux-gnu"

%union.anon = type { i32 }
%struct.blockProperties_t = type { i32, i32 }

@__const.MEM_isLittleEndian.one = private unnamed_addr constant %union.anon { i32 1 }, align 4
@ZSTDv07_did_fieldSize = internal constant [4 x i64] [i64 0, i64 1, i64 2, i64 4], align 16
@ZSTDv07_fcs_fieldSize = internal constant [4 x i64] [i64 0, i64 2, i64 4, i64 8], align 16

; Function Attrs: inlinehint nounwind uwtable
define internal i32 @MEM_swap32(i32 noundef %0) #2 {
  %2 = alloca i32, align 4
  store i32 %0, ptr %2, align 4, !tbaa !15
  %3 = load i32, ptr %2, align 4, !tbaa !15
  %4 = shl i32 %3, 24
  %5 = and i32 %4, -16777216
  %6 = load i32, ptr %2, align 4, !tbaa !15
  %7 = shl i32 %6, 8
  %8 = and i32 %7, 16711680
  %9 = or i32 %5, %8
  %10 = load i32, ptr %2, align 4, !tbaa !15
  %11 = lshr i32 %10, 8
  %12 = and i32 %11, 65280
  %13 = or i32 %9, %12
  %14 = load i32, ptr %2, align 4, !tbaa !15
  %15 = lshr i32 %14, 24
  %16 = and i32 %15, 255
  %17 = or i32 %13, %16
  ret i32 %17
}

; Function Attrs: inlinehint nounwind uwtable
define internal i32 @MEM_read32(ptr noundef %0) #2 {
  %2 = alloca ptr, align 8
  %3 = alloca i32, align 4
  store ptr %0, ptr %2, align 8, !tbaa !12
  call void @llvm.lifetime.start.p0(i64 4, ptr %3) #11
  %4 = load ptr, ptr %2, align 8, !tbaa !12
  call void @llvm.memcpy.p0.p0.i64(ptr align 4 %3, ptr align 1 %4, i64 4, i1 false)
  %5 = load i32, ptr %3, align 4, !tbaa !15
  call void @llvm.lifetime.end.p0(i64 4, ptr %3) #11
  ret i32 %5
}

; Function Attrs: inlinehint nounwind uwtable
define internal i32 @MEM_isLittleEndian() #2 {
  %1 = alloca %union.anon, align 4
  call void @llvm.lifetime.start.p0(i64 4, ptr %1) #11
  call void @llvm.memcpy.p0.p0.i64(ptr align 4 %1, ptr align 4 @__const.MEM_isLittleEndian.one, i64 4, i1 false)
  %2 = getelementptr inbounds [4 x i8], ptr %1, i64 0, i64 0
  %3 = load i8, ptr %2, align 4, !tbaa !25
  %4 = zext i8 %3 to i32
  call void @llvm.lifetime.end.p0(i64 4, ptr %1) #11
  ret i32 %4
}

; Function Attrs: nounwind uwtable
define internal i64 @ZSTDv07_getcBlockSize(ptr noundef %0, i64 noundef %1, ptr noundef %2) #0 {
  %4 = alloca i64, align 8
  %5 = alloca ptr, align 8
  %6 = alloca i64, align 8
  %7 = alloca ptr, align 8
  %8 = alloca ptr, align 8
  %9 = alloca i32, align 4
  %10 = alloca i32, align 4
  store ptr %0, ptr %5, align 8, !tbaa !12
  store i64 %1, ptr %6, align 8, !tbaa !3
  store ptr %2, ptr %7, align 8, !tbaa !12
  call void @llvm.lifetime.start.p0(i64 8, ptr %8) #11
  %11 = load ptr, ptr %5, align 8, !tbaa !12
  store ptr %11, ptr %8, align 8, !tbaa !13
  call void @llvm.lifetime.start.p0(i64 4, ptr %9) #11
  %12 = load i64, ptr %6, align 8, !tbaa !3
  %13 = icmp ult i64 %12, 3
  br i1 %13, label %14, label %15

14:                                               ; preds = %3
  store i64 -72, ptr %4, align 8
  store i32 1, ptr %10, align 4
  br label %64

15:                                               ; preds = %3
  %16 = load ptr, ptr %8, align 8, !tbaa !13
  %17 = load i8, ptr %16, align 1, !tbaa !25
  %18 = zext i8 %17 to i32
  %19 = ashr i32 %18, 6
  %20 = load ptr, ptr %7, align 8, !tbaa !12
  %21 = getelementptr inbounds nuw %struct.blockProperties_t, ptr %20, i32 0, i32 0
  store i32 %19, ptr %21, align 4, !tbaa !64
  %22 = load ptr, ptr %8, align 8, !tbaa !13
  %23 = getelementptr inbounds i8, ptr %22, i64 2
  %24 = load i8, ptr %23, align 1, !tbaa !25
  %25 = zext i8 %24 to i32
  %26 = load ptr, ptr %8, align 8, !tbaa !13
  %27 = getelementptr inbounds i8, ptr %26, i64 1
  %28 = load i8, ptr %27, align 1, !tbaa !25
  %29 = zext i8 %28 to i32
  %30 = shl i32 %29, 8
  %31 = add nsw i32 %25, %30
  %32 = load ptr, ptr %8, align 8, !tbaa !13
  %33 = getelementptr inbounds i8, ptr %32, i64 0
  %34 = load i8, ptr %33, align 1, !tbaa !25
  %35 = zext i8 %34 to i32
  %36 = and i32 %35, 7
  %37 = shl i32 %36, 16
  %38 = add nsw i32 %31, %37
  store i32 %38, ptr %9, align 4, !tbaa !15
  %39 = load ptr, ptr %7, align 8, !tbaa !12
  %40 = getelementptr inbounds nuw %struct.blockProperties_t, ptr %39, i32 0, i32 0
  %41 = load i32, ptr %40, align 4, !tbaa !64
  %42 = icmp eq i32 %41, 2
  br i1 %42, label %43, label %45

43:                                               ; preds = %15
  %44 = load i32, ptr %9, align 4, !tbaa !15
  br label %46

45:                                               ; preds = %15
  br label %46

46:                                               ; preds = %45, %43
  %47 = phi i32 [ %44, %43 ], [ 0, %45 ]
  %48 = load ptr, ptr %7, align 8, !tbaa !12
  %49 = getelementptr inbounds nuw %struct.blockProperties_t, ptr %48, i32 0, i32 1
  store i32 %47, ptr %49, align 4, !tbaa !66
  %50 = load ptr, ptr %7, align 8, !tbaa !12
  %51 = getelementptr inbounds nuw %struct.blockProperties_t, ptr %50, i32 0, i32 0
  %52 = load i32, ptr %51, align 4, !tbaa !64
  %53 = icmp eq i32 %52, 3
  br i1 %53, label %54, label %55

54:                                               ; preds = %46
  store i64 0, ptr %4, align 8
  store i32 1, ptr %10, align 4
  br label %64

55:                                               ; preds = %46
  %56 = load ptr, ptr %7, align 8, !tbaa !12
  %57 = getelementptr inbounds nuw %struct.blockProperties_t, ptr %56, i32 0, i32 0
  %58 = load i32, ptr %57, align 4, !tbaa !64
  %59 = icmp eq i32 %58, 2
  br i1 %59, label %60, label %61

60:                                               ; preds = %55
  store i64 1, ptr %4, align 8
  store i32 1, ptr %10, align 4
  br label %64

61:                                               ; preds = %55
  %62 = load i32, ptr %9, align 4, !tbaa !15
  %63 = zext i32 %62 to i64
  store i64 %63, ptr %4, align 8
  store i32 1, ptr %10, align 4
  br label %64

64:                                               ; preds = %61, %60, %54, %14
  call void @llvm.lifetime.end.p0(i64 4, ptr %9) #11
  call void @llvm.lifetime.end.p0(i64 8, ptr %8) #11
  %65 = load i64, ptr %4, align 8
  ret i64 %65
}

; Function Attrs: inlinehint nounwind uwtable
define internal i32 @MEM_readLE32(ptr noundef %0) #2 {
  %2 = alloca i32, align 4
  %3 = alloca ptr, align 8
  store ptr %0, ptr %3, align 8, !tbaa !12
  %4 = call i32 @MEM_isLittleEndian()
  %5 = icmp ne i32 %4, 0
  br i1 %5, label %6, label %9

6:                                                ; preds = %1
  %7 = load ptr, ptr %3, align 8, !tbaa !12
  %8 = call i32 @MEM_read32(ptr noundef %7)
  store i32 %8, ptr %2, align 4
  br label %13

9:                                                ; preds = %1
  %10 = load ptr, ptr %3, align 8, !tbaa !12
  %11 = call i32 @MEM_read32(ptr noundef %10)
  %12 = call i32 @MEM_swap32(i32 noundef %11)
  store i32 %12, ptr %2, align 4
  br label %13

13:                                               ; preds = %9, %6
  %14 = load i32, ptr %2, align 4
  ret i32 %14
}

; Function Attrs: nounwind uwtable
define internal i32 @ERR_isError(i64 noundef %0) #0 {
  %2 = alloca i64, align 8
  store i64 %0, ptr %2, align 8, !tbaa !3
  %3 = load i64, ptr %2, align 8, !tbaa !3
  %4 = icmp ugt i64 %3, -120
  %5 = zext i1 %4 to i32
  ret i32 %5
}

; Function Attrs: nounwind uwtable
define internal i64 @ZSTDv07_frameHeaderSize(ptr noundef %0, i64 noundef %1) #0 {
  %3 = alloca i64, align 8
  %4 = alloca ptr, align 8
  %5 = alloca i64, align 8
  %6 = alloca i8, align 1
  %7 = alloca i32, align 4
  %8 = alloca i32, align 4
  %9 = alloca i32, align 4
  store ptr %0, ptr %4, align 8, !tbaa !12
  store i64 %1, ptr %5, align 8, !tbaa !3
  %10 = load i64, ptr %5, align 8, !tbaa !3
  %11 = icmp ult i64 %10, 5
  br i1 %11, label %12, label %13

12:                                               ; preds = %2
  store i64 -72, ptr %3, align 8
  br label %57

13:                                               ; preds = %2
  call void @llvm.lifetime.start.p0(i64 1, ptr %6) #11
  %14 = load ptr, ptr %4, align 8, !tbaa !12
  %15 = getelementptr inbounds i8, ptr %14, i64 4
  %16 = load i8, ptr %15, align 1, !tbaa !25
  store i8 %16, ptr %6, align 1, !tbaa !25
  call void @llvm.lifetime.start.p0(i64 4, ptr %7) #11
  %17 = load i8, ptr %6, align 1, !tbaa !25
  %18 = zext i8 %17 to i32
  %19 = and i32 %18, 3
  store i32 %19, ptr %7, align 4, !tbaa !15
  call void @llvm.lifetime.start.p0(i64 4, ptr %8) #11
  %20 = load i8, ptr %6, align 1, !tbaa !25
  %21 = zext i8 %20 to i32
  %22 = ashr i32 %21, 5
  %23 = and i32 %22, 1
  store i32 %23, ptr %8, align 4, !tbaa !15
  call void @llvm.lifetime.start.p0(i64 4, ptr %9) #11
  %24 = load i8, ptr %6, align 1, !tbaa !25
  %25 = zext i8 %24 to i32
  %26 = ashr i32 %25, 6
  store i32 %26, ptr %9, align 4, !tbaa !15
  %27 = load i32, ptr %8, align 4, !tbaa !15
  %28 = icmp ne i32 %27, 0
  %29 = xor i1 %28, true
  %30 = zext i1 %29 to i32
  %31 = sext i32 %30 to i64
  %32 = add i64 5, %31
  %33 = load i32, ptr %7, align 4, !tbaa !15
  %34 = zext i32 %33 to i64
  %35 = getelementptr inbounds nuw [4 x i64], ptr @ZSTDv07_did_fieldSize, i64 0, i64 %34
  %36 = load i64, ptr %35, align 8, !tbaa !3
  %37 = add i64 %32, %36
  %38 = load i32, ptr %9, align 4, !tbaa !15
  %39 = zext i32 %38 to i64
  %40 = getelementptr inbounds nuw [4 x i64], ptr @ZSTDv07_fcs_fieldSize, i64 0, i64 %39
  %41 = load i64, ptr %40, align 8, !tbaa !3
  %42 = add i64 %37, %41
  %43 = load i32, ptr %8, align 4, !tbaa !15
  %44 = icmp ne i32 %43, 0
  br i1 %44, label %45, label %52

45:                                               ; preds = %13
  %46 = load i32, ptr %9, align 4, !tbaa !15
  %47 = zext i32 %46 to i64
  %48 = getelementptr inbounds nuw [4 x i64], ptr @ZSTDv07_fcs_fieldSize, i64 0, i64 %47
  %49 = load i64, ptr %48, align 8, !tbaa !3
  %50 = icmp ne i64 %49, 0
  %51 = xor i1 %50, true
  br label %52

52:                                               ; preds = %45, %13
  %53 = phi i1 [ false, %13 ], [ %51, %45 ]
  %54 = zext i1 %53 to i32
  %55 = sext i32 %54 to i64
  %56 = add i64 %42, %55
  store i64 %56, ptr %3, align 8
  call void @llvm.lifetime.end.p0(i64 4, ptr %9) #11
  call void @llvm.lifetime.end.p0(i64 4, ptr %8) #11
  call void @llvm.lifetime.end.p0(i64 4, ptr %7) #11
  call void @llvm.lifetime.end.p0(i64 1, ptr %6) #11
  br label %57

57:                                               ; preds = %52, %12
  %58 = load i64, ptr %3, align 8
  ret i64 %58
}

; Function Attrs: nounwind uwtable
define internal void @ZSTD_errorFrameSizeInfoLegacy(ptr noundef %0, ptr noundef %1, i64 noundef %2) #0 {
  %4 = alloca ptr, align 8
  %5 = alloca ptr, align 8
  %6 = alloca i64, align 8
  store ptr %0, ptr %4, align 8, !tbaa !95
  store ptr %1, ptr %5, align 8, !tbaa !97
  store i64 %2, ptr %6, align 8, !tbaa !3
  %7 = load i64, ptr %6, align 8, !tbaa !3
  %8 = load ptr, ptr %4, align 8, !tbaa !95
  store i64 %7, ptr %8, align 8, !tbaa !3
  %9 = load ptr, ptr %5, align 8, !tbaa !97
  store i64 -2, ptr %9, align 8, !tbaa !99
  ret void
}

; Function Attrs: nounwind uwtable
define void @ZSTDv07_findFrameSizeInfoLegacy(ptr noundef %0, i64 noundef %1, ptr noundef %2, ptr noundef %3) #0 {
  %5 = alloca ptr, align 8
  %6 = alloca i64, align 8
  %7 = alloca ptr, align 8
  %8 = alloca ptr, align 8
  %9 = alloca ptr, align 8
  %10 = alloca i64, align 8
  %11 = alloca i64, align 8
  %12 = alloca i32, align 4
  %13 = alloca i64, align 8
  %14 = alloca %struct.blockProperties_t, align 4
  %15 = alloca i64, align 8
  store ptr %0, ptr %5, align 8, !tbaa !12
  store i64 %1, ptr %6, align 8, !tbaa !3
  store ptr %2, ptr %7, align 8, !tbaa !95
  store ptr %3, ptr %8, align 8, !tbaa !97
  call void @llvm.lifetime.start.p0(i64 8, ptr %9) #11
  %16 = load ptr, ptr %5, align 8, !tbaa !12
  store ptr %16, ptr %9, align 8, !tbaa !13
  call void @llvm.lifetime.start.p0(i64 8, ptr %10) #11
  %17 = load i64, ptr %6, align 8, !tbaa !3
  store i64 %17, ptr %10, align 8, !tbaa !3
  call void @llvm.lifetime.start.p0(i64 8, ptr %11) #11
  store i64 0, ptr %11, align 8, !tbaa !3
  %18 = load i64, ptr %6, align 8, !tbaa !3
  %19 = icmp ult i64 %18, 8
  br i1 %19, label %20, label %23

20:                                               ; preds = %4
  %21 = load ptr, ptr %7, align 8, !tbaa !95
  %22 = load ptr, ptr %8, align 8, !tbaa !97
  call void @ZSTD_errorFrameSizeInfoLegacy(ptr noundef %21, ptr noundef %22, i64 noundef -72)
  store i32 1, ptr %12, align 4
  br label %109

23:                                               ; preds = %4
  call void @llvm.lifetime.start.p0(i64 8, ptr %13) #11
  %24 = load ptr, ptr %5, align 8, !tbaa !12
  %25 = load i64, ptr %6, align 8, !tbaa !3
  %26 = call i64 @ZSTDv07_frameHeaderSize(ptr noundef %24, i64 noundef %25)
  store i64 %26, ptr %13, align 8, !tbaa !3
  %27 = load i64, ptr %13, align 8, !tbaa !3
  %28 = call i32 @ERR_isError(i64 noundef %27)
  %29 = icmp ne i32 %28, 0
  br i1 %29, label %30, label %34

30:                                               ; preds = %23
  %31 = load ptr, ptr %7, align 8, !tbaa !95
  %32 = load ptr, ptr %8, align 8, !tbaa !97
  %33 = load i64, ptr %13, align 8, !tbaa !3
  call void @ZSTD_errorFrameSizeInfoLegacy(ptr noundef %31, ptr noundef %32, i64 noundef %33)
  store i32 1, ptr %12, align 4
  br label %56

34:                                               ; preds = %23
  %35 = load ptr, ptr %5, align 8, !tbaa !12
  %36 = call i32 @MEM_readLE32(ptr noundef %35)
  %37 = icmp ne i32 %36, -47205081
  br i1 %37, label %38, label %41

38:                                               ; preds = %34
  %39 = load ptr, ptr %7, align 8, !tbaa !95
  %40 = load ptr, ptr %8, align 8, !tbaa !97
  call void @ZSTD_errorFrameSizeInfoLegacy(ptr noundef %39, ptr noundef %40, i64 noundef -10)
  store i32 1, ptr %12, align 4
  br label %56

41:                                               ; preds = %34
  %42 = load i64, ptr %6, align 8, !tbaa !3
  %43 = load i64, ptr %13, align 8, !tbaa !3
  %44 = add i64 %43, 3
  %45 = icmp ult i64 %42, %44
  br i1 %45, label %46, label %49

46:                                               ; preds = %41
  %47 = load ptr, ptr %7, align 8, !tbaa !95
  %48 = load ptr, ptr %8, align 8, !tbaa !97
  call void @ZSTD_errorFrameSizeInfoLegacy(ptr noundef %47, ptr noundef %48, i64 noundef -72)
  store i32 1, ptr %12, align 4
  br label %56

49:                                               ; preds = %41
  %50 = load i64, ptr %13, align 8, !tbaa !3
  %51 = load ptr, ptr %9, align 8, !tbaa !13
  %52 = getelementptr inbounds nuw i8, ptr %51, i64 %50
  store ptr %52, ptr %9, align 8, !tbaa !13
  %53 = load i64, ptr %13, align 8, !tbaa !3
  %54 = load i64, ptr %10, align 8, !tbaa !3
  %55 = sub i64 %54, %53
  store i64 %55, ptr %10, align 8, !tbaa !3
  store i32 0, ptr %12, align 4
  br label %56

56:                                               ; preds = %49, %46, %38, %30
  call void @llvm.lifetime.end.p0(i64 8, ptr %13) #11
  %57 = load i32, ptr %12, align 4
  switch i32 %57, label %109 [
    i32 0, label %58
  ]

58:                                               ; preds = %56
  br label %59

59:                                               ; preds = %98, %58
  br label %60

60:                                               ; preds = %59
  call void @llvm.lifetime.start.p0(i64 8, ptr %14) #11
  call void @llvm.lifetime.start.p0(i64 8, ptr %15) #11
  %61 = load ptr, ptr %9, align 8, !tbaa !13
  %62 = load i64, ptr %10, align 8, !tbaa !3
  %63 = call i64 @ZSTDv07_getcBlockSize(ptr noundef %61, i64 noundef %62, ptr noundef %14)
  store i64 %63, ptr %15, align 8, !tbaa !3
  %64 = load i64, ptr %15, align 8, !tbaa !3
  %65 = call i32 @ERR_isError(i64 noundef %64)
  %66 = icmp ne i32 %65, 0
  br i1 %66, label %67, label %71

67:                                               ; preds = %60
  %68 = load ptr, ptr %7, align 8, !tbaa !95
  %69 = load ptr, ptr %8, align 8, !tbaa !97
  %70 = load i64, ptr %15, align 8, !tbaa !3
  call void @ZSTD_errorFrameSizeInfoLegacy(ptr noundef %68, ptr noundef %69, i64 noundef %70)
  store i32 1, ptr %12, align 4
  br label %96

71:                                               ; preds = %60
  %72 = load ptr, ptr %9, align 8, !tbaa !13
  %73 = getelementptr inbounds nuw i8, ptr %72, i64 3
  store ptr %73, ptr %9, align 8, !tbaa !13
  %74 = load i64, ptr %10, align 8, !tbaa !3
  %75 = sub i64 %74, 3
  store i64 %75, ptr %10, align 8, !tbaa !3
  %76 = getelementptr inbounds nuw %struct.blockProperties_t, ptr %14, i32 0, i32 0
  %77 = load i32, ptr %76, align 4, !tbaa !64
  %78 = icmp eq i32 %77, 3
  br i1 %78, label %79, label %80

79:                                               ; preds = %71
  store i32 3, ptr %12, align 4
  br label %96

80:                                               ; preds = %71
  %81 = load i64, ptr %15, align 8, !tbaa !3
  %82 = load i64, ptr %10, align 8, !tbaa !3
  %83 = icmp ugt i64 %81, %82
  br i1 %83, label %84, label %87

84:                                               ; preds = %80
  %85 = load ptr, ptr %7, align 8, !tbaa !95
  %86 = load ptr, ptr %8, align 8, !tbaa !97
  call void @ZSTD_errorFrameSizeInfoLegacy(ptr noundef %85, ptr noundef %86, i64 noundef -72)
  store i32 1, ptr %12, align 4
  br label %96

87:                                               ; preds = %80
  %88 = load i64, ptr %15, align 8, !tbaa !3
  %89 = load ptr, ptr %9, align 8, !tbaa !13
  %90 = getelementptr inbounds nuw i8, ptr %89, i64 %88
  store ptr %90, ptr %9, align 8, !tbaa !13
  %91 = load i64, ptr %15, align 8, !tbaa !3
  %92 = load i64, ptr %10, align 8, !tbaa !3
  %93 = sub i64 %92, %91
  store i64 %93, ptr %10, align 8, !tbaa !3
  %94 = load i64, ptr %11, align 8, !tbaa !3
  %95 = add i64 %94, 1
  store i64 %95, ptr %11, align 8, !tbaa !3
  store i32 0, ptr %12, align 4
  br label %96

96:                                               ; preds = %87, %84, %79, %67
  call void @llvm.lifetime.end.p0(i64 8, ptr %15) #11
  call void @llvm.lifetime.end.p0(i64 8, ptr %14) #11
  %97 = load i32, ptr %12, align 4
  switch i32 %97, label %109 [
    i32 0, label %98
    i32 3, label %99
  ]

98:                                               ; preds = %96
  br label %59

99:                                               ; preds = %96
  %100 = load ptr, ptr %9, align 8, !tbaa !13
  %101 = load ptr, ptr %5, align 8, !tbaa !12
  %102 = ptrtoint ptr %100 to i64
  %103 = ptrtoint ptr %101 to i64
  %104 = sub i64 %102, %103
  %105 = load ptr, ptr %7, align 8, !tbaa !95
  store i64 %104, ptr %105, align 8, !tbaa !3
  %106 = load i64, ptr %11, align 8, !tbaa !3
  %107 = mul i64 %106, 131072
  %108 = load ptr, ptr %8, align 8, !tbaa !97
  store i64 %107, ptr %108, align 8, !tbaa !99
  store i32 0, ptr %12, align 4
  br label %109

109:                                              ; preds = %99, %96, %56, %20
  call void @llvm.lifetime.end.p0(i64 8, ptr %11) #11
  call void @llvm.lifetime.end.p0(i64 8, ptr %10) #11
  call void @llvm.lifetime.end.p0(i64 8, ptr %9) #11
  %110 = load i32, ptr %12, align 4
  switch i32 %110, label %112 [
    i32 0, label %111
    i32 1, label %111
  ]

111:                                              ; preds = %109, %109
  ret void

112:                                              ; preds = %109
  unreachable
}