; Function Attrs: nofree norecurse nosync nounwind memory(argmem: readwrite) uwtable
define void @ZSTDv07_findFrameSizeInfoLegacy(ptr noundef %0, i64 noundef %1, ptr noundef writeonly captures(none) %2, ptr noundef writeonly captures(none) %3) local_unnamed_addr #2 {
  %5 = icmp ult i64 %1, 8
  br i1 %5, label %6, label %7

6:                                                ; preds = %4
  store i64 -72, ptr %2, align 8, !tbaa !78
  br label %.thread

7:                                                ; preds = %4
  %8 = getelementptr i8, ptr %0, i64 4
  %.val58 = load i8, ptr %8, align 1, !tbaa !14
  %9 = zext i8 %.val58 to i32
  %10 = and i32 %9, 3
  %11 = lshr i32 %9, 6
  %12 = and i32 %9, 32
  %.not.i = icmp ne i32 %12, 0
  %13 = zext nneg i32 %10 to i64
  %14 = getelementptr inbounds nuw [4 x i64], ptr @ZSTDv07_did_fieldSize, i64 0, i64 %13
  %15 = load i64, ptr %14, align 8, !tbaa !78
  %16 = zext nneg i32 %11 to i64
  %17 = getelementptr inbounds nuw [4 x i64], ptr @ZSTDv07_fcs_fieldSize, i64 0, i64 %16
  %18 = load i64, ptr %17, align 8, !tbaa !78
  %.not10.i = icmp ult i8 %.val58, 64
  %narrow1.i = and i1 %.not10.i, %.not.i
  %19 = zext i1 %narrow1.i to i64
  %.lobit.i = lshr exact i32 %12, 5
  %narrow.i = sub nuw nsw i32 6, %.lobit.i
  %20 = zext nneg i32 %narrow.i to i64
  %21 = add i64 %18, %15
  %22 = add i64 %21, %20
  %23 = add i64 %22, %19
  %24 = icmp ult i64 %23, -119
  br i1 %24, label %26, label %25

25:                                               ; preds = %7
  store i64 %23, ptr %2, align 8, !tbaa !78
  br label %.thread

26:                                               ; preds = %7
  %.val = load i32, ptr %0, align 1
  %.not56 = icmp eq i32 %.val, -47205081
  br i1 %.not56, label %28, label %27

27:                                               ; preds = %26
  store i64 -10, ptr %2, align 8, !tbaa !78
  br label %.thread

28:                                               ; preds = %26
  %29 = add nuw i64 %23, 3
  %30 = icmp ult i64 %1, %29
  br i1 %30, label %31, label %32

31:                                               ; preds = %28
  store i64 -72, ptr %2, align 8, !tbaa !78
  br label %.thread

32:                                               ; preds = %28
  %33 = sub nuw i64 %1, %23
  %34 = icmp ult i64 %33, 3
  br i1 %34, label %._crit_edge, label %.lr.ph.preheader

.lr.ph.preheader:                                 ; preds = %32
  %35 = getelementptr inbounds nuw i8, ptr %0, i64 %23
  br label %.lr.ph

.lr.ph:                                           ; preds = %.lr.ph.preheader, %54
  %.194 = phi ptr [ %56, %54 ], [ %35, %.lr.ph.preheader ]
  %.14693 = phi i64 [ %57, %54 ], [ %33, %.lr.ph.preheader ]
  %.05092 = phi i64 [ %58, %54 ], [ 0, %.lr.ph.preheader ]
  %36 = load i8, ptr %.194, align 1, !tbaa !14
  %37 = lshr i8 %36, 6
  switch i8 %37, label %38 [
    i8 3, label %.thread68
    i8 2, label %.thread70
  ]

._crit_edge:                                      ; preds = %54, %32
  store i64 -72, ptr %2, align 8, !tbaa !78
  br label %.thread

38:                                               ; preds = %.lr.ph
  %39 = and i8 %36, 7
  %40 = zext nneg i8 %39 to i64
  %41 = shl nuw nsw i64 %40, 16
  %42 = getelementptr inbounds nuw i8, ptr %.194, i64 1
  %43 = load i8, ptr %42, align 1, !tbaa !14
  %44 = zext i8 %43 to i64
  %45 = shl nuw nsw i64 %44, 8
  %46 = getelementptr inbounds nuw i8, ptr %.194, i64 2
  %47 = load i8, ptr %46, align 1, !tbaa !14
  %48 = zext i8 %47 to i64
  %49 = or disjoint i64 %45, %48
  %50 = or disjoint i64 %49, %41
  br label %.thread70

.thread70:                                        ; preds = %38, %.lr.ph
  %.0.i.ph72 = phi i64 [ %50, %38 ], [ 1, %.lr.ph ]
  %51 = add i64 %.14693, -3
  %52 = icmp ugt i64 %.0.i.ph72, %51
  br i1 %52, label %53, label %54

53:                                               ; preds = %.thread70
  store i64 -72, ptr %2, align 8, !tbaa !78
  br label %.thread

54:                                               ; preds = %.thread70
  %55 = getelementptr inbounds nuw i8, ptr %.194, i64 3
  %56 = getelementptr inbounds nuw i8, ptr %55, i64 %.0.i.ph72
  %57 = sub nuw i64 %51, %.0.i.ph72
  %58 = add i64 %.05092, 1
  %59 = icmp ult i64 %57, 3
  br i1 %59, label %._crit_edge, label %.lr.ph

.thread68:                                        ; preds = %.lr.ph
  %.2.ph = getelementptr inbounds nuw i8, ptr %.194, i64 3
  %60 = ptrtoint ptr %.2.ph to i64
  %61 = ptrtoint ptr %0 to i64
  %62 = sub i64 %60, %61
  store i64 %62, ptr %2, align 8, !tbaa !78
  %63 = shl i64 %.05092, 17
  br label %.thread

.thread:                                          ; preds = %53, %._crit_edge, %31, %27, %25, %.thread68, %6
  %.sink = phi i64 [ -2, %53 ], [ -2, %._crit_edge ], [ -2, %31 ], [ -2, %27 ], [ -2, %25 ], [ %63, %.thread68 ], [ -2, %6 ]
  store i64 %.sink, ptr %3, align 8, !tbaa !101
  ret void
}